target datalayout = "e-m:e-p270:32:32-p271:32:32-p272:64:64-i64:64-i128:128-f80:128-n8:16:32:64-S128"
target triple = "x86_64-pc-linux-gnu"

%struct.WalSummaryFile = type { i64, i64, i32 }
%struct.ForEachState = type { ptr, i32 }
%struct.List = type { i32, i32, i32, ptr, [0 x %union.ListCell] }
%union.ListCell = type { ptr }

; Function Attrs: nounwind uwtable
define dso_local zeroext i1 @WalSummariesAreComplete(ptr noundef %0, i64 noundef %1, i64 noundef %2, ptr noundef %3) #0 {
  %5 = alloca i1, align 1
  %6 = alloca ptr, align 8
  %7 = alloca i64, align 8
  %8 = alloca i64, align 8
  %9 = alloca ptr, align 8
  %10 = alloca i64, align 8
  %11 = alloca ptr, align 8
  %12 = alloca i32, align 4
  %13 = alloca %struct.ForEachState, align 8
  %14 = alloca ptr, align 8
  store ptr %0, ptr %6, align 8
  store i64 %1, ptr %7, align 8
  store i64 %2, ptr %8, align 8
  store ptr %3, ptr %9, align 8
  call void @llvm.lifetime.start.p0(i64 8, ptr %10) #10
  %15 = load i64, ptr %7, align 8
  store i64 %15, ptr %10, align 8
  call void @llvm.lifetime.start.p0(i64 8, ptr %11) #10
  %16 = load ptr, ptr %6, align 8
  %17 = icmp eq ptr %16, null
  br i1 %17, label %18, label %20

18:                                               ; preds = %4
  %19 = load ptr, ptr %9, align 8
  store i64 0, ptr %19, align 8
  store i1 false, ptr %5, align 1
  store i32 1, ptr %12, align 4
  br label %91

20:                                               ; preds = %4
  %21 = load ptr, ptr %6, align 8
  %22 = call ptr @list_copy(ptr noundef %21)
  store ptr %22, ptr %6, align 8
  %23 = load ptr, ptr %6, align 8
  call void @list_sort(ptr noundef %23, ptr noundef @ListComparatorForWalSummaryFiles)
  call void @llvm.lifetime.start.p0(i64 16, ptr %13) #10
  %24 = getelementptr inbounds nuw %struct.ForEachState, ptr %13, i32 0, i32 0
  %25 = load ptr, ptr %6, align 8
  store ptr %25, ptr %24, align 8
  %26 = getelementptr inbounds nuw %struct.ForEachState, ptr %13, i32 0, i32 1
  store i32 0, ptr %26, align 8
  %27 = getelementptr i8, ptr %13, i64 12
  call void @llvm.memset.p0.i64(ptr align 4 %27, i8 0, i64 4, i1 false)
  br label %28

28:                                               ; preds = %82, %20
  %29 = getelementptr inbounds nuw %struct.ForEachState, ptr %13, i32 0, i32 0
  %30 = load ptr, ptr %29, align 8
  %31 = icmp ne ptr %30, null
  br i1 %31, label %32, label %49

32:                                               ; preds = %28
  %33 = getelementptr inbounds nuw %struct.ForEachState, ptr %13, i32 0, i32 1
  %34 = load i32, ptr %33, align 8
  %35 = getelementptr inbounds nuw %struct.ForEachState, ptr %13, i32 0, i32 0
  %36 = load ptr, ptr %35, align 8
  %37 = getelementptr inbounds nuw %struct.List, ptr %36, i32 0, i32 1
  %38 = load i32, ptr %37, align 4
  %39 = icmp slt i32 %34, %38
  br i1 %39, label %40, label %49

40:                                               ; preds = %32
  %41 = getelementptr inbounds nuw %struct.ForEachState, ptr %13, i32 0, i32 0
  %42 = load ptr, ptr %41, align 8
  %43 = getelementptr inbounds nuw %struct.List, ptr %42, i32 0, i32 3
  %44 = load ptr, ptr %43, align 8
  %45 = getelementptr inbounds nuw %struct.ForEachState, ptr %13, i32 0, i32 1
  %46 = load i32, ptr %45, align 8
  %47 = sext i32 %46 to i64
  %48 = getelementptr inbounds %union.ListCell, ptr %44, i64 %47
  store ptr %48, ptr %11, align 8
  br label %50

49:                                               ; preds = %32, %28
  store ptr null, ptr %11, align 8
  br label %50

50:                                               ; preds = %49, %40
  %51 = phi i32 [ 1, %40 ], [ 0, %49 ]
  %52 = icmp ne i32 %51, 0
  br i1 %52, label %54, label %53

53:                                               ; preds = %50
  store i32 2, ptr %12, align 4
  br label %86

54:                                               ; preds = %50
  call void @llvm.lifetime.start.p0(i64 8, ptr %14) #10
  %55 = load ptr, ptr %11, align 8
  %56 = load ptr, ptr %55, align 8
  store ptr %56, ptr %14, align 8
  %57 = load ptr, ptr %14, align 8
  %58 = getelementptr inbounds nuw %struct.WalSummaryFile, ptr %57, i32 0, i32 0
  %59 = load i64, ptr %58, align 8
  %60 = load i64, ptr %10, align 8
  %61 = icmp ugt i64 %59, %60
  br i1 %61, label %62, label %63

62:                                               ; preds = %54
  store i32 2, ptr %12, align 4
  br label %79

63:                                               ; preds = %54
  %64 = load ptr, ptr %14, align 8
  %65 = getelementptr inbounds nuw %struct.WalSummaryFile, ptr %64, i32 0, i32 1
  %66 = load i64, ptr %65, align 8
  %67 = load i64, ptr %10, align 8
  %68 = icmp ugt i64 %66, %67
  br i1 %68, label %69, label %78

69:                                               ; preds = %63
  %70 = load ptr, ptr %14, align 8
  %71 = getelementptr inbounds nuw %struct.WalSummaryFile, ptr %70, i32 0, i32 1
  %72 = load i64, ptr %71, align 8
  store i64 %72, ptr %10, align 8
  %73 = load i64, ptr %10, align 8
  %74 = load i64, ptr %8, align 8
  %75 = icmp uge i64 %73, %74
  br i1 %75, label %76, label %77

76:                                               ; preds = %69
  store i1 true, ptr %5, align 1
  store i32 1, ptr %12, align 4
  br label %79

77:                                               ; preds = %69
  br label %78

78:                                               ; preds = %77, %63
  store i32 0, ptr %12, align 4
  br label %79

79:                                               ; preds = %78, %76, %62
  call void @llvm.lifetime.end.p0(i64 8, ptr %14) #10
  %80 = load i32, ptr %12, align 4
  switch i32 %80, label %86 [
    i32 0, label %81
  ]

81:                                               ; preds = %79
  br label %82

82:                                               ; preds = %81
  %83 = getelementptr inbounds nuw %struct.ForEachState, ptr %13, i32 0, i32 1
  %84 = load i32, ptr %83, align 8
  %85 = add i32 %84, 1
  store i32 %85, ptr %83, align 8
  br label %28, !llvm.loop !7

86:                                               ; preds = %79, %53
  call void @llvm.lifetime.end.p0(i64 16, ptr %13) #10
  %87 = load i32, ptr %12, align 4
  switch i32 %87, label %91 [
    i32 2, label %88
  ]

88:                                               ; preds = %86
  %89 = load i64, ptr %10, align 8
  %90 = load ptr, ptr %9, align 8
  store i64 %89, ptr %90, align 8
  store i1 false, ptr %5, align 1
  store i32 1, ptr %12, align 4
  br label %91

91:                                               ; preds = %88, %86, %18
  call void @llvm.lifetime.end.p0(i64 8, ptr %11) #10
  call void @llvm.lifetime.end.p0(i64 8, ptr %10) #10
  %92 = load i1, ptr %5, align 1
  ret i1 %92
}