; Function Attrs: nounwind uwtable
define dso_local noundef zeroext i1 @WalSummariesAreComplete(ptr noundef %0, i64 noundef %1, i64 noundef %2, ptr noundef writeonly captures(none) %3) local_unnamed_addr #0 {
  %5 = icmp eq ptr %0, null
  br i1 %5, label %.loopexit.sink.split, label %6

6:                                                ; preds = %4
  %7 = tail call ptr @list_copy(ptr noundef nonnull %0) #12
  tail call void @list_sort(ptr noundef %7, ptr noundef nonnull @ListComparatorForWalSummaryFiles) #12
  %.not = icmp eq ptr %7, null
  br i1 %.not, label %.loopexit.sink.split, label %.lr.ph

.lr.ph:                                           ; preds = %6
  %8 = getelementptr inbounds nuw i8, ptr %7, i64 4
  %9 = load i32, ptr %8, align 4
  %10 = icmp sgt i32 %9, 0
  br i1 %10, label %.lr.ph64, label %.loopexit.sink.split

.lr.ph64:                                         ; preds = %.lr.ph
  %11 = getelementptr inbounds nuw i8, ptr %7, i64 16
  %12 = load ptr, ptr %11, align 8
  %wide.trip.count = zext nneg i32 %9 to i64
  br label %13

13:                                               ; preds = %.lr.ph64, %.thread38
  %indvars.iv = phi i64 [ 0, %.lr.ph64 ], [ %indvars.iv.next, %.thread38 ]
  %.0235463 = phi i64 [ %1, %.lr.ph64 ], [ %.22542, %.thread38 ]
  %14 = getelementptr inbounds nuw %union.ListCell, ptr %12, i64 %indvars.iv
  %15 = load ptr, ptr %14, align 8
  %16 = load i64, ptr %15, align 8
  %17 = icmp ugt i64 %16, %.0235463
  br i1 %17, label %.loopexit.sink.split, label %18

18:                                               ; preds = %13
  %19 = getelementptr inbounds nuw i8, ptr %15, i64 8
  %20 = load i64, ptr %19, align 8
  %21 = icmp ugt i64 %20, %.0235463
  br i1 %21, label %22, label %.thread38

22:                                               ; preds = %18
  %.not34 = icmp ult i64 %20, %2
  br i1 %.not34, label %.thread38, label %.loopexit

.thread38:                                        ; preds = %18, %22
  %.22542 = phi i64 [ %20, %22 ], [ %.0235463, %18 ]
  %indvars.iv.next = add nuw nsw i64 %indvars.iv, 1
  %exitcond.not = icmp eq i64 %indvars.iv.next, %wide.trip.count
  br i1 %exitcond.not, label %.loopexit.sink.split, label %13

.loopexit.sink.split:                             ; preds = %13, %.thread38, %6, %.lr.ph, %4
  %.023.lcssa.sink = phi i64 [ 0, %4 ], [ %1, %6 ], [ %1, %.lr.ph ], [ %.0235463, %13 ], [ %.22542, %.thread38 ]
  store i64 %.023.lcssa.sink, ptr %3, align 8
  br label %.loopexit

.loopexit:                                        ; preds = %22, %.loopexit.sink.split
  %.0 = phi i1 [ false, %.loopexit.sink.split ], [ true, %22 ]
  ret i1 %.0
}